target datalayout = "e-m:e-p270:32:32-p271:32:32-p272:64:64-i64:64-i128:128-f80:128-n8:16:32:64-S128"
target triple = "x86_64-pc-linux-gnu"

%struct.archive_write = type { %struct.archive, i32, i64, i64, ptr, i64, ptr, ptr, ptr, ptr, ptr, i32, i32, ptr, ptr, ptr, ptr, ptr, ptr, ptr, ptr, ptr, ptr, ptr, ptr, ptr, ptr }
%struct.archive = type { i32, i32, ptr, i32, ptr, i32, i32, ptr, %struct.archive_string, ptr, i32, i32, ptr, ptr, i64, i64, i64, i8, i64 }
%struct.archive_string = type { ptr, i64, i64 }
%struct.archive_write_filter = type { i64, ptr, ptr, ptr, ptr, ptr, ptr, ptr, ptr, ptr, ptr, i32, i32, i32, i32 }

@.str.5 = private unnamed_addr constant [19 x i8] c"archive_write_open\00", align 1

; Function Attrs: nounwind uwtable
define dso_local void @__archive_write_filters_free(ptr noundef %0) #0 {
  %2 = alloca ptr, align 8
  %3 = alloca ptr, align 8
  %4 = alloca i32, align 4
  %5 = alloca i32, align 4
  %6 = alloca ptr, align 8
  store ptr %0, ptr %2, align 8, !tbaa !26
  call void @llvm.lifetime.start.p0(i64 8, ptr %3) #9
  %7 = load ptr, ptr %2, align 8, !tbaa !26
  store ptr %7, ptr %3, align 8, !tbaa !4
  call void @llvm.lifetime.start.p0(i64 4, ptr %4) #9
  store i32 0, ptr %4, align 4, !tbaa !28
  call void @llvm.lifetime.start.p0(i64 4, ptr %5) #9
  br label %8

8:                                                ; preds = %41, %1
  %9 = load ptr, ptr %3, align 8, !tbaa !4
  %10 = getelementptr inbounds nuw %struct.archive_write, ptr %9, i32 0, i32 13
  %11 = load ptr, ptr %10, align 8, !tbaa !37
  %12 = icmp ne ptr %11, null
  br i1 %12, label %13, label %48

13:                                               ; preds = %8
  call void @llvm.lifetime.start.p0(i64 8, ptr %6) #9
  %14 = load ptr, ptr %3, align 8, !tbaa !4
  %15 = getelementptr inbounds nuw %struct.archive_write, ptr %14, i32 0, i32 13
  %16 = load ptr, ptr %15, align 8, !tbaa !37
  %17 = getelementptr inbounds nuw %struct.archive_write_filter, ptr %16, i32 0, i32 2
  %18 = load ptr, ptr %17, align 8, !tbaa !39
  store ptr %18, ptr %6, align 8, !tbaa !33
  %19 = load ptr, ptr %3, align 8, !tbaa !4
  %20 = getelementptr inbounds nuw %struct.archive_write, ptr %19, i32 0, i32 13
  %21 = load ptr, ptr %20, align 8, !tbaa !37
  %22 = getelementptr inbounds nuw %struct.archive_write_filter, ptr %21, i32 0, i32 8
  %23 = load ptr, ptr %22, align 8, !tbaa !52
  %24 = icmp ne ptr %23, null
  br i1 %24, label %25, label %41

25:                                               ; preds = %13
  %26 = load ptr, ptr %3, align 8, !tbaa !4
  %27 = getelementptr inbounds nuw %struct.archive_write, ptr %26, i32 0, i32 13
  %28 = load ptr, ptr %27, align 8, !tbaa !37
  %29 = getelementptr inbounds nuw %struct.archive_write_filter, ptr %28, i32 0, i32 8
  %30 = load ptr, ptr %29, align 8, !tbaa !52
  %31 = load ptr, ptr %3, align 8, !tbaa !4
  %32 = getelementptr inbounds nuw %struct.archive_write, ptr %31, i32 0, i32 13
  %33 = load ptr, ptr %32, align 8, !tbaa !37
  %34 = call i32 %30(ptr noundef %33)
  store i32 %34, ptr %5, align 4, !tbaa !28
  %35 = load i32, ptr %4, align 4, !tbaa !28
  %36 = load i32, ptr %5, align 4, !tbaa !28
  %37 = icmp sgt i32 %35, %36
  br i1 %37, label %38, label %40

38:                                               ; preds = %25
  %39 = load i32, ptr %5, align 4, !tbaa !28
  store i32 %39, ptr %4, align 4, !tbaa !28
  br label %40

40:                                               ; preds = %38, %25
  br label %41

41:                                               ; preds = %40, %13
  %42 = load ptr, ptr %3, align 8, !tbaa !4
  %43 = getelementptr inbounds nuw %struct.archive_write, ptr %42, i32 0, i32 13
  %44 = load ptr, ptr %43, align 8, !tbaa !37
  call void @free(ptr noundef %44) #9
  %45 = load ptr, ptr %6, align 8, !tbaa !33
  %46 = load ptr, ptr %3, align 8, !tbaa !4
  %47 = getelementptr inbounds nuw %struct.archive_write, ptr %46, i32 0, i32 13
  store ptr %45, ptr %47, align 8, !tbaa !37
  call void @llvm.lifetime.end.p0(i64 8, ptr %6) #9
  br label %8, !llvm.loop !70

48:                                               ; preds = %8
  %49 = load ptr, ptr %3, align 8, !tbaa !4
  %50 = getelementptr inbounds nuw %struct.archive_write, ptr %49, i32 0, i32 14
  store ptr null, ptr %50, align 8, !tbaa !38
  call void @llvm.lifetime.end.p0(i64 4, ptr %5) #9
  call void @llvm.lifetime.end.p0(i64 4, ptr %4) #9
  call void @llvm.lifetime.end.p0(i64 8, ptr %3) #9
  ret void
}

; Function Attrs: nounwind uwtable
define internal i32 @__archive_write_filters_close(ptr noundef %0) #0 {
  %2 = alloca ptr, align 8
  %3 = alloca ptr, align 8
  %4 = alloca i32, align 4
  %5 = alloca i32, align 4
  store ptr %0, ptr %2, align 8, !tbaa !4
  call void @llvm.lifetime.start.p0(i64 8, ptr %3) #9
  call void @llvm.lifetime.start.p0(i64 4, ptr %4) #9
  call void @llvm.lifetime.start.p0(i64 4, ptr %5) #9
  store i32 0, ptr %4, align 4, !tbaa !28
  %6 = load ptr, ptr %2, align 8, !tbaa !4
  %7 = getelementptr inbounds nuw %struct.archive_write, ptr %6, i32 0, i32 13
  %8 = load ptr, ptr %7, align 8, !tbaa !37
  store ptr %8, ptr %3, align 8, !tbaa !33
  br label %9

9:                                                ; preds = %48, %1
  %10 = load ptr, ptr %3, align 8, !tbaa !33
  %11 = icmp ne ptr %10, null
  br i1 %11, label %12, label %52

12:                                               ; preds = %9
  %13 = load ptr, ptr %3, align 8, !tbaa !33
  %14 = getelementptr inbounds nuw %struct.archive_write_filter, ptr %13, i32 0, i32 14
  %15 = load i32, ptr %14, align 4, !tbaa !36
  %16 = icmp eq i32 %15, 2
  br i1 %16, label %17, label %47

17:                                               ; preds = %12
  %18 = load ptr, ptr %3, align 8, !tbaa !33
  %19 = getelementptr inbounds nuw %struct.archive_write_filter, ptr %18, i32 0, i32 7
  %20 = load ptr, ptr %19, align 8, !tbaa !51
  %21 = icmp ne ptr %20, null
  br i1 %21, label %22, label %43

22:                                               ; preds = %17
  %23 = load ptr, ptr %3, align 8, !tbaa !33
  %24 = getelementptr inbounds nuw %struct.archive_write_filter, ptr %23, i32 0, i32 7
  %25 = load ptr, ptr %24, align 8, !tbaa !51
  %26 = load ptr, ptr %3, align 8, !tbaa !33
  %27 = call i32 %25(ptr noundef %26)
  store i32 %27, ptr %5, align 4, !tbaa !28
  %28 = load i32, ptr %5, align 4, !tbaa !28
  %29 = load i32, ptr %4, align 4, !tbaa !28
  %30 = icmp slt i32 %28, %29
  br i1 %30, label %31, label %33

31:                                               ; preds = %22
  %32 = load i32, ptr %5, align 4, !tbaa !28
  store i32 %32, ptr %4, align 4, !tbaa !28
  br label %33

33:                                               ; preds = %31, %22
  %34 = load i32, ptr %5, align 4, !tbaa !28
  %35 = icmp eq i32 %34, 0
  br i1 %35, label %36, label %39

36:                                               ; preds = %33
  %37 = load ptr, ptr %3, align 8, !tbaa !33
  %38 = getelementptr inbounds nuw %struct.archive_write_filter, ptr %37, i32 0, i32 14
  store i32 4, ptr %38, align 4, !tbaa !36
  br label %42

39:                                               ; preds = %33
  %40 = load ptr, ptr %3, align 8, !tbaa !33
  %41 = getelementptr inbounds nuw %struct.archive_write_filter, ptr %40, i32 0, i32 14
  store i32 32768, ptr %41, align 4, !tbaa !36
  br label %42

42:                                               ; preds = %39, %36
  br label %46

43:                                               ; preds = %17
  %44 = load ptr, ptr %3, align 8, !tbaa !33
  %45 = getelementptr inbounds nuw %struct.archive_write_filter, ptr %44, i32 0, i32 14
  store i32 4, ptr %45, align 4, !tbaa !36
  br label %46

46:                                               ; preds = %43, %42
  br label %47

47:                                               ; preds = %46, %12
  br label %48

48:                                               ; preds = %47
  %49 = load ptr, ptr %3, align 8, !tbaa !33
  %50 = getelementptr inbounds nuw %struct.archive_write_filter, ptr %49, i32 0, i32 2
  %51 = load ptr, ptr %50, align 8, !tbaa !39
  store ptr %51, ptr %3, align 8, !tbaa !33
  br label %9, !llvm.loop !69

52:                                               ; preds = %9
  %53 = load i32, ptr %4, align 4, !tbaa !28
  call void @llvm.lifetime.end.p0(i64 4, ptr %5) #9
  call void @llvm.lifetime.end.p0(i64 4, ptr %4) #9
  call void @llvm.lifetime.end.p0(i64 8, ptr %3) #9
  ret i32 %53
}

; Function Attrs: nounwind uwtable
define internal i32 @__archive_write_filters_open(ptr noundef %0) #0 {
  %2 = alloca ptr, align 8
  store ptr %0, ptr %2, align 8, !tbaa !4
  %3 = load ptr, ptr %2, align 8, !tbaa !4
  %4 = getelementptr inbounds nuw %struct.archive_write, ptr %3, i32 0, i32 13
  %5 = load ptr, ptr %4, align 8, !tbaa !37
  %6 = call i32 @__archive_write_open_filter(ptr noundef %5)
  ret i32 %6
}

; Function Attrs: nounwind uwtable
define dso_local ptr @__archive_write_allocate_filter(ptr noundef %0) #0 {
  %2 = alloca ptr, align 8
  %3 = alloca ptr, align 8
  %4 = alloca ptr, align 8
  %5 = alloca ptr, align 8
  %6 = alloca i32, align 4
  store ptr %0, ptr %3, align 8, !tbaa !26
  call void @llvm.lifetime.start.p0(i64 8, ptr %4) #9
  %7 = load ptr, ptr %3, align 8, !tbaa !26
  store ptr %7, ptr %4, align 8, !tbaa !4
  call void @llvm.lifetime.start.p0(i64 8, ptr %5) #9
  %8 = call noalias ptr @calloc(i64 noundef 1, i64 noundef 104) #10
  store ptr %8, ptr %5, align 8, !tbaa !33
  %9 = load ptr, ptr %5, align 8, !tbaa !33
  %10 = icmp eq ptr %9, null
  br i1 %10, label %11, label %12

11:                                               ; preds = %1
  store ptr null, ptr %2, align 8
  store i32 1, ptr %6, align 4
  br label %37

12:                                               ; preds = %1
  %13 = load ptr, ptr %3, align 8, !tbaa !26
  %14 = load ptr, ptr %5, align 8, !tbaa !33
  %15 = getelementptr inbounds nuw %struct.archive_write_filter, ptr %14, i32 0, i32 1
  store ptr %13, ptr %15, align 8, !tbaa !34
  %16 = load ptr, ptr %5, align 8, !tbaa !33
  %17 = getelementptr inbounds nuw %struct.archive_write_filter, ptr %16, i32 0, i32 14
  store i32 1, ptr %17, align 4, !tbaa !36
  %18 = load ptr, ptr %4, align 8, !tbaa !4
  %19 = getelementptr inbounds nuw %struct.archive_write, ptr %18, i32 0, i32 13
  %20 = load ptr, ptr %19, align 8, !tbaa !37
  %21 = icmp eq ptr %20, null
  br i1 %21, label %22, label %26

22:                                               ; preds = %12
  %23 = load ptr, ptr %5, align 8, !tbaa !33
  %24 = load ptr, ptr %4, align 8, !tbaa !4
  %25 = getelementptr inbounds nuw %struct.archive_write, ptr %24, i32 0, i32 13
  store ptr %23, ptr %25, align 8, !tbaa !37
  br label %32

26:                                               ; preds = %12
  %27 = load ptr, ptr %5, align 8, !tbaa !33
  %28 = load ptr, ptr %4, align 8, !tbaa !4
  %29 = getelementptr inbounds nuw %struct.archive_write, ptr %28, i32 0, i32 14
  %30 = load ptr, ptr %29, align 8, !tbaa !38
  %31 = getelementptr inbounds nuw %struct.archive_write_filter, ptr %30, i32 0, i32 2
  store ptr %27, ptr %31, align 8, !tbaa !39
  br label %32

32:                                               ; preds = %26, %22
  %33 = load ptr, ptr %5, align 8, !tbaa !33
  %34 = load ptr, ptr %4, align 8, !tbaa !4
  %35 = getelementptr inbounds nuw %struct.archive_write, ptr %34, i32 0, i32 14
  store ptr %33, ptr %35, align 8, !tbaa !38
  %36 = load ptr, ptr %5, align 8, !tbaa !33
  store ptr %36, ptr %2, align 8
  store i32 1, ptr %6, align 4
  br label %37

37:                                               ; preds = %32, %11
  call void @llvm.lifetime.end.p0(i64 8, ptr %5) #9
  call void @llvm.lifetime.end.p0(i64 8, ptr %4) #9
  %38 = load ptr, ptr %2, align 8
  ret ptr %38
}

; Function Attrs: nounwind uwtable
define dso_local i32 @archive_write_open2(ptr noundef %0, ptr noundef %1, ptr noundef %2, ptr noundef %3, ptr noundef %4, ptr noundef %5) #0 {
  %7 = alloca i32, align 4
  %8 = alloca ptr, align 8
  %9 = alloca ptr, align 8
  %10 = alloca ptr, align 8
  %11 = alloca ptr, align 8
  %12 = alloca ptr, align 8
  %13 = alloca ptr, align 8
  %14 = alloca ptr, align 8
  %15 = alloca ptr, align 8
  %16 = alloca i32, align 4
  %17 = alloca i32, align 4
  %18 = alloca i32, align 4
  %19 = alloca i32, align 4
  store ptr %0, ptr %8, align 8, !tbaa !26
  store ptr %1, ptr %9, align 8, !tbaa !40
  store ptr %2, ptr %10, align 8, !tbaa !40
  store ptr %3, ptr %11, align 8, !tbaa !40
  store ptr %4, ptr %12, align 8, !tbaa !40
  store ptr %5, ptr %13, align 8, !tbaa !40
  call void @llvm.lifetime.start.p0(i64 8, ptr %14) #9
  %20 = load ptr, ptr %8, align 8, !tbaa !26
  store ptr %20, ptr %14, align 8, !tbaa !4
  call void @llvm.lifetime.start.p0(i64 8, ptr %15) #9
  call void @llvm.lifetime.start.p0(i64 4, ptr %16) #9
  call void @llvm.lifetime.start.p0(i64 4, ptr %17) #9
  br label %21

21:                                               ; preds = %6
  call void @llvm.lifetime.start.p0(i64 4, ptr %18) #9
  %22 = load ptr, ptr %14, align 8, !tbaa !4
  %23 = getelementptr inbounds nuw %struct.archive_write, ptr %22, i32 0, i32 0
  %24 = call i32 @__archive_check_magic(ptr noundef %23, i32 noundef -1329217314, i32 noundef 1, ptr noundef @.str.5)
  store i32 %24, ptr %18, align 4, !tbaa !28
  %25 = load i32, ptr %18, align 4, !tbaa !28
  %26 = icmp eq i32 %25, -30
  br i1 %26, label %27, label %28

27:                                               ; preds = %21
  store i32 -30, ptr %7, align 4
  store i32 1, ptr %19, align 4
  br label %29

28:                                               ; preds = %21
  store i32 0, ptr %19, align 4
  br label %29

29:                                               ; preds = %28, %27
  call void @llvm.lifetime.end.p0(i64 4, ptr %18) #9
  %30 = load i32, ptr %19, align 4
  switch i32 %30, label %98 [
    i32 0, label %31
  ]

31:                                               ; preds = %29
  br label %32

32:                                               ; preds = %31
  br label %33

33:                                               ; preds = %32
  %34 = load ptr, ptr %14, align 8, !tbaa !4
  %35 = getelementptr inbounds nuw %struct.archive_write, ptr %34, i32 0, i32 0
  call void @archive_clear_error(ptr noundef %35)
  %36 = load ptr, ptr %11, align 8, !tbaa !40
  %37 = load ptr, ptr %14, align 8, !tbaa !4
  %38 = getelementptr inbounds nuw %struct.archive_write, ptr %37, i32 0, i32 7
  store ptr %36, ptr %38, align 8, !tbaa !45
  %39 = load ptr, ptr %10, align 8, !tbaa !40
  %40 = load ptr, ptr %14, align 8, !tbaa !4
  %41 = getelementptr inbounds nuw %struct.archive_write, ptr %40, i32 0, i32 6
  store ptr %39, ptr %41, align 8, !tbaa !46
  %42 = load ptr, ptr %12, align 8, !tbaa !40
  %43 = load ptr, ptr %14, align 8, !tbaa !4
  %44 = getelementptr inbounds nuw %struct.archive_write, ptr %43, i32 0, i32 8
  store ptr %42, ptr %44, align 8, !tbaa !47
  %45 = load ptr, ptr %13, align 8, !tbaa !40
  %46 = load ptr, ptr %14, align 8, !tbaa !4
  %47 = getelementptr inbounds nuw %struct.archive_write, ptr %46, i32 0, i32 9
  store ptr %45, ptr %47, align 8, !tbaa !48
  %48 = load ptr, ptr %9, align 8, !tbaa !40
  %49 = load ptr, ptr %14, align 8, !tbaa !4
  %50 = getelementptr inbounds nuw %struct.archive_write, ptr %49, i32 0, i32 10
  store ptr %48, ptr %50, align 8, !tbaa !49
  %51 = load ptr, ptr %8, align 8, !tbaa !26
  %52 = call ptr @__archive_write_allocate_filter(ptr noundef %51)
  store ptr %52, ptr %15, align 8, !tbaa !33
  %53 = load ptr, ptr %15, align 8, !tbaa !33
  %54 = icmp eq ptr %53, null
  br i1 %54, label %55, label %56

55:                                               ; preds = %33
  store i32 -30, ptr %7, align 4
  store i32 1, ptr %19, align 4
  br label %98

56:                                               ; preds = %33
  %57 = load ptr, ptr %15, align 8, !tbaa !33
  %58 = getelementptr inbounds nuw %struct.archive_write_filter, ptr %57, i32 0, i32 4
  store ptr @archive_write_client_open, ptr %58, align 8, !tbaa !50
  %59 = load ptr, ptr %15, align 8, !tbaa !33
  %60 = getelementptr inbounds nuw %struct.archive_write_filter, ptr %59, i32 0, i32 5
  store ptr @archive_write_client_write, ptr %60, align 8, !tbaa !41
  %61 = load ptr, ptr %15, align 8, !tbaa !33
  %62 = getelementptr inbounds nuw %struct.archive_write_filter, ptr %61, i32 0, i32 7
  store ptr @archive_write_client_close, ptr %62, align 8, !tbaa !51
  %63 = load ptr, ptr %15, align 8, !tbaa !33
  %64 = getelementptr inbounds nuw %struct.archive_write_filter, ptr %63, i32 0, i32 8
  store ptr @archive_write_client_free, ptr %64, align 8, !tbaa !52
  %65 = load ptr, ptr %14, align 8, !tbaa !4
  %66 = call i32 @__archive_write_filters_open(ptr noundef %65)
  store i32 %66, ptr %16, align 4, !tbaa !28
  %67 = load i32, ptr %16, align 4, !tbaa !28
  %68 = icmp slt i32 %67, -20
  br i1 %68, label %69, label %82

69:                                               ; preds = %56
  %70 = load ptr, ptr %14, align 8, !tbaa !4
  %71 = call i32 @__archive_write_filters_close(ptr noundef %70)
  store i32 %71, ptr %17, align 4, !tbaa !28
  %72 = load ptr, ptr %8, align 8, !tbaa !26
  call void @__archive_write_filters_free(ptr noundef %72)
  %73 = load i32, ptr %17, align 4, !tbaa !28
  %74 = load i32, ptr %16, align 4, !tbaa !28
  %75 = icmp slt i32 %73, %74
  br i1 %75, label %76, label %78

76:                                               ; preds = %69
  %77 = load i32, ptr %17, align 4, !tbaa !28
  br label %80

78:                                               ; preds = %69
  %79 = load i32, ptr %16, align 4, !tbaa !28
  br label %80

80:                                               ; preds = %78, %76
  %81 = phi i32 [ %77, %76 ], [ %79, %78 ]
  store i32 %81, ptr %7, align 4
  store i32 1, ptr %19, align 4
  br label %98

82:                                               ; preds = %56
  %83 = load ptr, ptr %14, align 8, !tbaa !4
  %84 = getelementptr inbounds nuw %struct.archive_write, ptr %83, i32 0, i32 0
  %85 = getelementptr inbounds nuw %struct.archive, ptr %84, i32 0, i32 1
  store i32 2, ptr %85, align 4, !tbaa !19
  %86 = load ptr, ptr %14, align 8, !tbaa !4
  %87 = getelementptr inbounds nuw %struct.archive_write, ptr %86, i32 0, i32 17
  %88 = load ptr, ptr %87, align 8, !tbaa !53
  %89 = icmp ne ptr %88, null
  br i1 %89, label %90, label %96

90:                                               ; preds = %82
  %91 = load ptr, ptr %14, align 8, !tbaa !4
  %92 = getelementptr inbounds nuw %struct.archive_write, ptr %91, i32 0, i32 17
  %93 = load ptr, ptr %92, align 8, !tbaa !53
  %94 = load ptr, ptr %14, align 8, !tbaa !4
  %95 = call i32 %93(ptr noundef %94)
  store i32 %95, ptr %16, align 4, !tbaa !28
  br label %96

96:                                               ; preds = %90, %82
  %97 = load i32, ptr %16, align 4, !tbaa !28
  store i32 %97, ptr %7, align 4
  store i32 1, ptr %19, align 4
  br label %98

98:                                               ; preds = %96, %80, %55, %29
  call void @llvm.lifetime.end.p0(i64 4, ptr %17) #9
  call void @llvm.lifetime.end.p0(i64 4, ptr %16) #9
  call void @llvm.lifetime.end.p0(i64 8, ptr %15) #9
  call void @llvm.lifetime.end.p0(i64 8, ptr %14) #9
  %99 = load i32, ptr %7, align 4
  ret i32 %99
}