; Function Attrs: nounwind uwtable
define dso_local i32 @archive_write_open2(ptr noundef %0, ptr noundef %1, ptr noundef %2, ptr noundef %3, ptr noundef %4, ptr noundef %5) local_unnamed_addr #3 {
  %7 = tail call i32 @__archive_check_magic(ptr noundef %0, i32 noundef -1329217314, i32 noundef 1, ptr noundef nonnull @.str.5) #13
  %.not = icmp eq i32 %7, -30
  br i1 %.not, label %__archive_write_allocate_filter.exit.thread, label %8

8:                                                ; preds = %6
  tail call void @archive_clear_error(ptr noundef %0) #13
  %9 = getelementptr inbounds nuw i8, ptr %0, i64 192
  store ptr %3, ptr %9, align 8, !tbaa !35
  %10 = getelementptr inbounds nuw i8, ptr %0, i64 184
  store ptr %2, ptr %10, align 8, !tbaa !36
  %11 = getelementptr inbounds nuw i8, ptr %0, i64 200
  store ptr %4, ptr %11, align 8, !tbaa !37
  %12 = getelementptr inbounds nuw i8, ptr %0, i64 208
  store ptr %5, ptr %12, align 8, !tbaa !38
  %13 = getelementptr inbounds nuw i8, ptr %0, i64 216
  store ptr %1, ptr %13, align 8, !tbaa !39
  %14 = tail call noalias dereferenceable_or_null(104) ptr @calloc(i64 noundef 1, i64 noundef 104) #12
  %15 = icmp eq ptr %14, null
  br i1 %15, label %__archive_write_allocate_filter.exit.thread, label %16

16:                                               ; preds = %8
  %17 = getelementptr inbounds nuw i8, ptr %14, i64 8
  store ptr %0, ptr %17, align 8, !tbaa !26
  %18 = getelementptr inbounds nuw i8, ptr %14, i64 100
  store i32 1, ptr %18, align 4, !tbaa !29
  %19 = getelementptr i8, ptr %0, i64 232
  %20 = load ptr, ptr %19, align 8, !tbaa !30
  %21 = icmp eq ptr %20, null
  br i1 %21, label %22, label %23

22:                                               ; preds = %16
  store ptr %14, ptr %19, align 8, !tbaa !30
  br label %27

23:                                               ; preds = %16
  %24 = getelementptr inbounds nuw i8, ptr %0, i64 240
  %25 = load ptr, ptr %24, align 8, !tbaa !31
  %26 = getelementptr inbounds nuw i8, ptr %25, i64 16
  store ptr %14, ptr %26, align 8, !tbaa !32
  br label %27

27:                                               ; preds = %23, %22
  %.val = phi ptr [ %20, %23 ], [ %14, %22 ]
  %28 = getelementptr inbounds nuw i8, ptr %0, i64 240
  store ptr %14, ptr %28, align 8, !tbaa !31
  %29 = getelementptr inbounds nuw i8, ptr %14, i64 32
  store ptr @archive_write_client_open, ptr %29, align 8, !tbaa !40
  %30 = getelementptr inbounds nuw i8, ptr %14, i64 40
  store ptr @archive_write_client_write, ptr %30, align 8, !tbaa !33
  %31 = getelementptr inbounds nuw i8, ptr %14, i64 56
  store ptr @archive_write_client_close, ptr %31, align 8, !tbaa !41
  %32 = getelementptr inbounds nuw i8, ptr %14, i64 64
  store ptr @archive_write_client_free, ptr %32, align 8, !tbaa !42
  %33 = tail call fastcc i32 @__archive_write_open_filter(ptr noundef nonnull %.val)
  %34 = icmp slt i32 %33, -20
  br i1 %34, label %35, label %57

35:                                               ; preds = %27
  %.018.i = load ptr, ptr %19, align 8, !tbaa !43
  %.not19.i = icmp eq ptr %.018.i, null
  br i1 %.not19.i, label %__archive_write_filters_free.exit, label %.lr.ph.i

.lr.ph.i:                                         ; preds = %35, %45
  %.021.i = phi ptr [ %.0.i, %45 ], [ %.018.i, %35 ]
  %.01420.i = phi i32 [ %.2.i, %45 ], [ 0, %35 ]
  %36 = getelementptr inbounds nuw i8, ptr %.021.i, i64 100
  %37 = load i32, ptr %36, align 4, !tbaa !29
  %38 = icmp eq i32 %37, 2
  br i1 %38, label %39, label %45

39:                                               ; preds = %.lr.ph.i
  %40 = getelementptr inbounds nuw i8, ptr %.021.i, i64 56
  %41 = load ptr, ptr %40, align 8, !tbaa !41
  %.not17.i = icmp eq ptr %41, null
  br i1 %.not17.i, label %.sink.split.i, label %42

42:                                               ; preds = %39
  %43 = tail call i32 %41(ptr noundef nonnull %.021.i) #13
  %spec.select.i = tail call i32 @llvm.smin.i32(i32 %43, i32 %.01420.i)
  %44 = icmp eq i32 %43, 0
  %..i = select i1 %44, i32 4, i32 32768
  br label %.sink.split.i

.sink.split.i:                                    ; preds = %42, %39
  %.sink.i = phi i32 [ %..i, %42 ], [ 4, %39 ]
  %.2.ph.i = phi i32 [ %spec.select.i, %42 ], [ %.01420.i, %39 ]
  store i32 %.sink.i, ptr %36, align 4, !tbaa !29
  br label %45

45:                                               ; preds = %.sink.split.i, %.lr.ph.i
  %.2.i = phi i32 [ %.01420.i, %.lr.ph.i ], [ %.2.ph.i, %.sink.split.i ]
  %46 = getelementptr inbounds nuw i8, ptr %.021.i, i64 16
  %.0.i = load ptr, ptr %46, align 8, !tbaa !43
  %.not.i = icmp eq ptr %.0.i, null
  br i1 %.not.i, label %__archive_write_filters_close.exit, label %.lr.ph.i, !llvm.loop !44

__archive_write_filters_close.exit:               ; preds = %45
  %.pr = load ptr, ptr %19, align 8, !tbaa !30
  %.not16.i = icmp eq ptr %.pr, null
  br i1 %.not16.i, label %__archive_write_filters_free.exit, label %.lr.ph.i41

.lr.ph.i41:                                       ; preds = %__archive_write_filters_close.exit, %54
  %47 = phi ptr [ %49, %54 ], [ %.pr, %__archive_write_filters_close.exit ]
  %48 = getelementptr inbounds nuw i8, ptr %47, i64 16
  %49 = load ptr, ptr %48, align 8, !tbaa !32
  %50 = getelementptr inbounds nuw i8, ptr %47, i64 64
  %51 = load ptr, ptr %50, align 8, !tbaa !42
  %.not15.i = icmp eq ptr %51, null
  br i1 %.not15.i, label %54, label %52

52:                                               ; preds = %.lr.ph.i41
  %53 = tail call i32 %51(ptr noundef nonnull %47) #13
  %.pre.i = load ptr, ptr %19, align 8, !tbaa !30
  br label %54

54:                                               ; preds = %52, %.lr.ph.i41
  %55 = phi ptr [ %47, %.lr.ph.i41 ], [ %.pre.i, %52 ]
  tail call void @free(ptr noundef %55) #13
  store ptr %49, ptr %19, align 8, !tbaa !30
  %.not.i42 = icmp eq ptr %49, null
  br i1 %.not.i42, label %__archive_write_filters_free.exit, label %.lr.ph.i41, !llvm.loop !46

__archive_write_filters_free.exit:                ; preds = %54, %35, %__archive_write_filters_close.exit
  %.014.lcssa.i45 = phi i32 [ %.2.i, %__archive_write_filters_close.exit ], [ 0, %35 ], [ %.2.i, %54 ]
  store ptr null, ptr %28, align 8, !tbaa !31
  %56 = tail call i32 @llvm.smin.i32(i32 %.014.lcssa.i45, i32 %33)
  br label %__archive_write_allocate_filter.exit.thread

57:                                               ; preds = %27
  %58 = getelementptr inbounds nuw i8, ptr %0, i64 4
  store i32 2, ptr %58, align 4, !tbaa !17
  %59 = getelementptr inbounds nuw i8, ptr %0, i64 264
  %60 = load ptr, ptr %59, align 8, !tbaa !47
  %.not40 = icmp eq ptr %60, null
  br i1 %.not40, label %__archive_write_allocate_filter.exit.thread, label %61

61:                                               ; preds = %57
  %62 = tail call i32 %60(ptr noundef nonnull %0) #13
  br label %__archive_write_allocate_filter.exit.thread

__archive_write_allocate_filter.exit.thread:      ; preds = %8, %57, %61, %6, %__archive_write_filters_free.exit
  %.1 = phi i32 [ %56, %__archive_write_filters_free.exit ], [ -30, %6 ], [ %62, %61 ], [ %33, %57 ], [ -30, %8 ]
  ret i32 %.1
}